target datalayout = "e-m:e-p270:32:32-p271:32:32-p272:64:64-i64:64-i128:128-f80:128-n8:16:32:64-S128"
target triple = "x86_64-pc-linux-gnu"

%"class.llvm::StringRef" = type { ptr, i64 }
%"struct.llvm::MachO::SimpleSymbol" = type <{ %"class.llvm::StringRef", i8, i8, [6 x i8] }>

@_ZN4llvm5MachOL20ObjC1ClassNamePrefixE = internal constant { ptr, i64 } { ptr @.str, i64 17 }, align 8
@_ZN4llvm5MachOL20ObjC2ClassNamePrefixE = internal constant { ptr, i64 } { ptr @.str.2, i64 14 }, align 8
@_ZN4llvm5MachOL24ObjC2MetaClassNamePrefixE = internal constant { ptr, i64 } { ptr @.str.4, i64 18 }, align 8
@_ZN4llvm5MachOL17ObjC2EHTypePrefixE = internal constant { ptr, i64 } { ptr @.str.6, i64 15 }, align 8
@_ZN4llvm5MachOL15ObjC2IVarPrefixE = internal constant { ptr, i64 } { ptr @.str.8, i64 13 }, align 8

; Function Attrs: mustprogress nounwind uwtable
define linkonce_odr hidden void @_ZN4llvm9StringRefC2EPKcm(ptr noundef nonnull align 8 dereferenceable(16) %0, ptr noundef %1, i64 noundef %2) unnamed_addr #0 comdat align 2 {
  %4 = alloca ptr, align 8
  %5 = alloca ptr, align 8
  %6 = alloca i64, align 8
  store ptr %0, ptr %4, align 8
  store ptr %1, ptr %5, align 8
  store i64 %2, ptr %6, align 8
  %7 = load ptr, ptr %4, align 8
  %8 = getelementptr inbounds nuw %"class.llvm::StringRef", ptr %7, i32 0, i32 0
  %9 = load ptr, ptr %5, align 8
  store ptr %9, ptr %8, align 8
  %10 = getelementptr inbounds nuw %"class.llvm::StringRef", ptr %7, i32 0, i32 1
  %11 = load i64, ptr %6, align 8
  store i64 %11, ptr %10, align 8
  ret void
}

; Function Attrs: mustprogress nounwind uwtable
define linkonce_odr noundef nonnull align 8 dereferenceable(8) ptr @_ZSt3minImERKT_S2_S2_(ptr noundef nonnull align 8 dereferenceable(8) %0, ptr noundef nonnull align 8 dereferenceable(8) %1) #0 comdat {
  %3 = alloca ptr, align 8
  %4 = alloca ptr, align 8
  %5 = alloca ptr, align 8
  store ptr %0, ptr %4, align 8
  store ptr %1, ptr %5, align 8
  %6 = load ptr, ptr %5, align 8
  %7 = load i64, ptr %6, align 8
  %8 = load ptr, ptr %4, align 8
  %9 = load i64, ptr %8, align 8
  %10 = icmp ult i64 %7, %9
  br i1 %10, label %11, label %13

11:                                               ; preds = %2
  %12 = load ptr, ptr %5, align 8
  store ptr %12, ptr %3, align 8
  br label %15

13:                                               ; preds = %2
  %14 = load ptr, ptr %4, align 8
  store ptr %14, ptr %3, align 8
  br label %15

15:                                               ; preds = %13, %11
  %16 = load ptr, ptr %3, align 8
  ret ptr %16
}

; Function Attrs: mustprogress nounwind uwtable
define linkonce_odr hidden { ptr, i64 } @_ZNK4llvm9StringRef6substrEmm(ptr noundef nonnull align 8 dereferenceable(16) %0, i64 noundef %1, i64 noundef %2) #0 comdat align 2 {
  %4 = alloca %"class.llvm::StringRef", align 8
  %5 = alloca ptr, align 8
  %6 = alloca i64, align 8
  %7 = alloca i64, align 8
  %8 = alloca i64, align 8
  store ptr %0, ptr %5, align 8
  store i64 %1, ptr %6, align 8
  store i64 %2, ptr %7, align 8
  %9 = load ptr, ptr %5, align 8
  %10 = getelementptr inbounds nuw %"class.llvm::StringRef", ptr %9, i32 0, i32 1
  %11 = call noundef nonnull align 8 dereferenceable(8) ptr @_ZSt3minImERKT_S2_S2_(ptr noundef nonnull align 8 dereferenceable(8) %6, ptr noundef nonnull align 8 dereferenceable(8) %10)
  %12 = load i64, ptr %11, align 8
  store i64 %12, ptr %6, align 8
  %13 = getelementptr inbounds nuw %"class.llvm::StringRef", ptr %9, i32 0, i32 0
  %14 = load ptr, ptr %13, align 8
  %15 = load i64, ptr %6, align 8
  %16 = getelementptr inbounds i8, ptr %14, i64 %15
  %17 = getelementptr inbounds nuw %"class.llvm::StringRef", ptr %9, i32 0, i32 1
  %18 = load i64, ptr %17, align 8
  %19 = load i64, ptr %6, align 8
  %20 = sub i64 %18, %19
  store i64 %20, ptr %8, align 8
  %21 = call noundef nonnull align 8 dereferenceable(8) ptr @_ZSt3minImERKT_S2_S2_(ptr noundef nonnull align 8 dereferenceable(8) %7, ptr noundef nonnull align 8 dereferenceable(8) %8)
  %22 = load i64, ptr %21, align 8
  call void @_ZN4llvm9StringRefC2EPKcm(ptr noundef nonnull align 8 dereferenceable(16) %4, ptr noundef %16, i64 noundef %22)
  %23 = load { ptr, i64 }, ptr %4, align 8
  ret { ptr, i64 } %23
}

; Function Attrs: mustprogress nounwind uwtable
define linkonce_odr hidden noundef i32 @_ZN4llvm9StringRef13compareMemoryEPKcS2_m(ptr noundef %0, ptr noundef %1, i64 noundef %2) #0 comdat align 2 {
  %4 = alloca i32, align 4
  %5 = alloca ptr, align 8
  %6 = alloca ptr, align 8
  %7 = alloca i64, align 8
  store ptr %0, ptr %5, align 8
  store ptr %1, ptr %6, align 8
  store i64 %2, ptr %7, align 8
  %8 = load i64, ptr %7, align 8
  %9 = icmp eq i64 %8, 0
  br i1 %9, label %10, label %11

10:                                               ; preds = %3
  store i32 0, ptr %4, align 4
  br label %16

11:                                               ; preds = %3
  %12 = load ptr, ptr %5, align 8
  %13 = load ptr, ptr %6, align 8
  %14 = load i64, ptr %7, align 8
  %15 = call i32 @memcmp(ptr noundef %12, ptr noundef %13, i64 noundef %14) #7
  store i32 %15, ptr %4, align 4
  br label %16

16:                                               ; preds = %11, %10
  %17 = load i32, ptr %4, align 4
  ret i32 %17
}

; Function Attrs: mustprogress nounwind uwtable
define linkonce_odr hidden { ptr, i64 } @_ZNK4llvm9StringRef10drop_frontEm(ptr noundef nonnull align 8 dereferenceable(16) %0, i64 noundef %1) #0 comdat align 2 {
  %3 = alloca %"class.llvm::StringRef", align 8
  %4 = alloca ptr, align 8
  %5 = alloca i64, align 8
  store ptr %0, ptr %4, align 8
  store i64 %1, ptr %5, align 8
  %6 = load ptr, ptr %4, align 8
  %7 = load i64, ptr %5, align 8
  %8 = call { ptr, i64 } @_ZNK4llvm9StringRef6substrEmm(ptr noundef nonnull align 8 dereferenceable(16) %6, i64 noundef %7, i64 noundef -1)
  %9 = getelementptr inbounds nuw { ptr, i64 }, ptr %3, i32 0, i32 0
  %10 = extractvalue { ptr, i64 } %8, 0
  store ptr %10, ptr %9, align 8
  %11 = getelementptr inbounds nuw { ptr, i64 }, ptr %3, i32 0, i32 1
  %12 = extractvalue { ptr, i64 } %8, 1
  store i64 %12, ptr %11, align 8
  %13 = load { ptr, i64 }, ptr %3, align 8
  ret { ptr, i64 } %13
}

; Function Attrs: mustprogress nounwind uwtable
define linkonce_odr hidden noundef i64 @_ZNK4llvm9StringRef4sizeEv(ptr noundef nonnull align 8 dereferenceable(16) %0) #0 comdat align 2 {
  %2 = alloca ptr, align 8
  store ptr %0, ptr %2, align 8
  %3 = load ptr, ptr %2, align 8
  %4 = getelementptr inbounds nuw %"class.llvm::StringRef", ptr %3, i32 0, i32 1
  %5 = load i64, ptr %4, align 8
  ret i64 %5
}

; Function Attrs: mustprogress nounwind uwtable
define linkonce_odr hidden noundef zeroext i1 @_ZNK4llvm9StringRef11starts_withES0_(ptr noundef nonnull align 8 dereferenceable(16) %0, ptr %1, i64 %2) #0 comdat align 2 {
  %4 = alloca %"class.llvm::StringRef", align 8
  %5 = alloca ptr, align 8
  %6 = getelementptr inbounds nuw { ptr, i64 }, ptr %4, i32 0, i32 0
  store ptr %1, ptr %6, align 8
  %7 = getelementptr inbounds nuw { ptr, i64 }, ptr %4, i32 0, i32 1
  store i64 %2, ptr %7, align 8
  store ptr %0, ptr %5, align 8
  %8 = load ptr, ptr %5, align 8
  %9 = getelementptr inbounds nuw %"class.llvm::StringRef", ptr %8, i32 0, i32 1
  %10 = load i64, ptr %9, align 8
  %11 = getelementptr inbounds nuw %"class.llvm::StringRef", ptr %4, i32 0, i32 1
  %12 = load i64, ptr %11, align 8
  %13 = icmp uge i64 %10, %12
  br i1 %13, label %14, label %23

14:                                               ; preds = %3
  %15 = getelementptr inbounds nuw %"class.llvm::StringRef", ptr %8, i32 0, i32 0
  %16 = load ptr, ptr %15, align 8
  %17 = getelementptr inbounds nuw %"class.llvm::StringRef", ptr %4, i32 0, i32 0
  %18 = load ptr, ptr %17, align 8
  %19 = getelementptr inbounds nuw %"class.llvm::StringRef", ptr %4, i32 0, i32 1
  %20 = load i64, ptr %19, align 8
  %21 = call noundef i32 @_ZN4llvm9StringRef13compareMemoryEPKcS2_m(ptr noundef %16, ptr noundef %18, i64 noundef %20)
  %22 = icmp eq i32 %21, 0
  br label %23

23:                                               ; preds = %14, %3
  %24 = phi i1 [ false, %3 ], [ %22, %14 ]
  ret i1 %24
}

; Function Attrs: mustprogress nounwind uwtable
define dso_local void @_ZN4llvm5MachO11parseSymbolENS_9StringRefE(ptr dead_on_unwind noalias writable sret(%"struct.llvm::MachO::SimpleSymbol") align 8 %0, ptr %1, i64 %2) #0 {
  %4 = alloca %"class.llvm::StringRef", align 8
  %5 = alloca %"class.llvm::StringRef", align 8
  %6 = alloca %"class.llvm::StringRef", align 8
  %7 = alloca %"class.llvm::StringRef", align 8
  %8 = alloca %"class.llvm::StringRef", align 8
  %9 = alloca %"class.llvm::StringRef", align 8
  %10 = getelementptr inbounds nuw { ptr, i64 }, ptr %4, i32 0, i32 0
  store ptr %1, ptr %10, align 8
  %11 = getelementptr inbounds nuw { ptr, i64 }, ptr %4, i32 0, i32 1
  store i64 %2, ptr %11, align 8
  call void @llvm.memcpy.p0.p0.i64(ptr align 8 %5, ptr align 8 @_ZN4llvm5MachOL20ObjC1ClassNamePrefixE, i64 16, i1 false)
  %12 = getelementptr inbounds nuw { ptr, i64 }, ptr %5, i32 0, i32 0
  %13 = load ptr, ptr %12, align 8
  %14 = getelementptr inbounds nuw { ptr, i64 }, ptr %5, i32 0, i32 1
  %15 = load i64, ptr %14, align 8
  %16 = call noundef zeroext i1 @_ZNK4llvm9StringRef11starts_withES0_(ptr noundef nonnull align 8 dereferenceable(16) %4, ptr %13, i64 %15)
  br i1 %16, label %17, label %27

17:                                               ; preds = %3
  %18 = getelementptr inbounds nuw %"struct.llvm::MachO::SimpleSymbol", ptr %0, i32 0, i32 0
  %19 = call noundef i64 @_ZNK4llvm9StringRef4sizeEv(ptr noundef nonnull align 8 dereferenceable(16) @_ZN4llvm5MachOL20ObjC1ClassNamePrefixE)
  %20 = call { ptr, i64 } @_ZNK4llvm9StringRef10drop_frontEm(ptr noundef nonnull align 8 dereferenceable(16) %4, i64 noundef %19)
  %21 = getelementptr inbounds nuw { ptr, i64 }, ptr %18, i32 0, i32 0
  %22 = extractvalue { ptr, i64 } %20, 0
  store ptr %22, ptr %21, align 8
  %23 = getelementptr inbounds nuw { ptr, i64 }, ptr %18, i32 0, i32 1
  %24 = extractvalue { ptr, i64 } %20, 1
  store i64 %24, ptr %23, align 8
  %25 = getelementptr inbounds nuw %"struct.llvm::MachO::SimpleSymbol", ptr %0, i32 0, i32 1
  store i8 1, ptr %25, align 8
  %26 = getelementptr inbounds nuw %"struct.llvm::MachO::SimpleSymbol", ptr %0, i32 0, i32 2
  store i8 1, ptr %26, align 1
  br label %95

27:                                               ; preds = %3
  call void @llvm.memcpy.p0.p0.i64(ptr align 8 %6, ptr align 8 @_ZN4llvm5MachOL20ObjC2ClassNamePrefixE, i64 16, i1 false)
  %28 = getelementptr inbounds nuw { ptr, i64 }, ptr %6, i32 0, i32 0
  %29 = load ptr, ptr %28, align 8
  %30 = getelementptr inbounds nuw { ptr, i64 }, ptr %6, i32 0, i32 1
  %31 = load i64, ptr %30, align 8
  %32 = call noundef zeroext i1 @_ZNK4llvm9StringRef11starts_withES0_(ptr noundef nonnull align 8 dereferenceable(16) %4, ptr %29, i64 %31)
  br i1 %32, label %33, label %43

33:                                               ; preds = %27
  %34 = getelementptr inbounds nuw %"struct.llvm::MachO::SimpleSymbol", ptr %0, i32 0, i32 0
  %35 = call noundef i64 @_ZNK4llvm9StringRef4sizeEv(ptr noundef nonnull align 8 dereferenceable(16) @_ZN4llvm5MachOL20ObjC2ClassNamePrefixE)
  %36 = call { ptr, i64 } @_ZNK4llvm9StringRef10drop_frontEm(ptr noundef nonnull align 8 dereferenceable(16) %4, i64 noundef %35)
  %37 = getelementptr inbounds nuw { ptr, i64 }, ptr %34, i32 0, i32 0
  %38 = extractvalue { ptr, i64 } %36, 0
  store ptr %38, ptr %37, align 8
  %39 = getelementptr inbounds nuw { ptr, i64 }, ptr %34, i32 0, i32 1
  %40 = extractvalue { ptr, i64 } %36, 1
  store i64 %40, ptr %39, align 8
  %41 = getelementptr inbounds nuw %"struct.llvm::MachO::SimpleSymbol", ptr %0, i32 0, i32 1
  store i8 1, ptr %41, align 8
  %42 = getelementptr inbounds nuw %"struct.llvm::MachO::SimpleSymbol", ptr %0, i32 0, i32 2
  store i8 1, ptr %42, align 1
  br label %95

43:                                               ; preds = %27
  call void @llvm.memcpy.p0.p0.i64(ptr align 8 %7, ptr align 8 @_ZN4llvm5MachOL24ObjC2MetaClassNamePrefixE, i64 16, i1 false)
  %44 = getelementptr inbounds nuw { ptr, i64 }, ptr %7, i32 0, i32 0
  %45 = load ptr, ptr %44, align 8
  %46 = getelementptr inbounds nuw { ptr, i64 }, ptr %7, i32 0, i32 1
  %47 = load i64, ptr %46, align 8
  %48 = call noundef zeroext i1 @_ZNK4llvm9StringRef11starts_withES0_(ptr noundef nonnull align 8 dereferenceable(16) %4, ptr %45, i64 %47)
  br i1 %48, label %49, label %59

49:                                               ; preds = %43
  %50 = getelementptr inbounds nuw %"struct.llvm::MachO::SimpleSymbol", ptr %0, i32 0, i32 0
  %51 = call noundef i64 @_ZNK4llvm9StringRef4sizeEv(ptr noundef nonnull align 8 dereferenceable(16) @_ZN4llvm5MachOL24ObjC2MetaClassNamePrefixE)
  %52 = call { ptr, i64 } @_ZNK4llvm9StringRef10drop_frontEm(ptr noundef nonnull align 8 dereferenceable(16) %4, i64 noundef %51)
  %53 = getelementptr inbounds nuw { ptr, i64 }, ptr %50, i32 0, i32 0
  %54 = extractvalue { ptr, i64 } %52, 0
  store ptr %54, ptr %53, align 8
  %55 = getelementptr inbounds nuw { ptr, i64 }, ptr %50, i32 0, i32 1
  %56 = extractvalue { ptr, i64 } %52, 1
  store i64 %56, ptr %55, align 8
  %57 = getelementptr inbounds nuw %"struct.llvm::MachO::SimpleSymbol", ptr %0, i32 0, i32 1
  store i8 1, ptr %57, align 8
  %58 = getelementptr inbounds nuw %"struct.llvm::MachO::SimpleSymbol", ptr %0, i32 0, i32 2
  store i8 2, ptr %58, align 1
  br label %95

59:                                               ; preds = %43
  call void @llvm.memcpy.p0.p0.i64(ptr align 8 %8, ptr align 8 @_ZN4llvm5MachOL17ObjC2EHTypePrefixE, i64 16, i1 false)
  %60 = getelementptr inbounds nuw { ptr, i64 }, ptr %8, i32 0, i32 0
  %61 = load ptr, ptr %60, align 8
  %62 = getelementptr inbounds nuw { ptr, i64 }, ptr %8, i32 0, i32 1
  %63 = load i64, ptr %62, align 8
  %64 = call noundef zeroext i1 @_ZNK4llvm9StringRef11starts_withES0_(ptr noundef nonnull align 8 dereferenceable(16) %4, ptr %61, i64 %63)
  br i1 %64, label %65, label %75

65:                                               ; preds = %59
  %66 = getelementptr inbounds nuw %"struct.llvm::MachO::SimpleSymbol", ptr %0, i32 0, i32 0
  %67 = call noundef i64 @_ZNK4llvm9StringRef4sizeEv(ptr noundef nonnull align 8 dereferenceable(16) @_ZN4llvm5MachOL17ObjC2EHTypePrefixE)
  %68 = call { ptr, i64 } @_ZNK4llvm9StringRef10drop_frontEm(ptr noundef nonnull align 8 dereferenceable(16) %4, i64 noundef %67)
  %69 = getelementptr inbounds nuw { ptr, i64 }, ptr %66, i32 0, i32 0
  %70 = extractvalue { ptr, i64 } %68, 0
  store ptr %70, ptr %69, align 8
  %71 = getelementptr inbounds nuw { ptr, i64 }, ptr %66, i32 0, i32 1
  %72 = extractvalue { ptr, i64 } %68, 1
  store i64 %72, ptr %71, align 8
  %73 = getelementptr inbounds nuw %"struct.llvm::MachO::SimpleSymbol", ptr %0, i32 0, i32 1
  store i8 2, ptr %73, align 8
  %74 = getelementptr inbounds nuw %"struct.llvm::MachO::SimpleSymbol", ptr %0, i32 0, i32 2
  store i8 4, ptr %74, align 1
  br label %95

75:                                               ; preds = %59
  call void @llvm.memcpy.p0.p0.i64(ptr align 8 %9, ptr align 8 @_ZN4llvm5MachOL15ObjC2IVarPrefixE, i64 16, i1 false)
  %76 = getelementptr inbounds nuw { ptr, i64 }, ptr %9, i32 0, i32 0
  %77 = load ptr, ptr %76, align 8
  %78 = getelementptr inbounds nuw { ptr, i64 }, ptr %9, i32 0, i32 1
  %79 = load i64, ptr %78, align 8
  %80 = call noundef zeroext i1 @_ZNK4llvm9StringRef11starts_withES0_(ptr noundef nonnull align 8 dereferenceable(16) %4, ptr %77, i64 %79)
  br i1 %80, label %81, label %91

81:                                               ; preds = %75
  %82 = getelementptr inbounds nuw %"struct.llvm::MachO::SimpleSymbol", ptr %0, i32 0, i32 0
  %83 = call noundef i64 @_ZNK4llvm9StringRef4sizeEv(ptr noundef nonnull align 8 dereferenceable(16) @_ZN4llvm5MachOL15ObjC2IVarPrefixE)
  %84 = call { ptr, i64 } @_ZNK4llvm9StringRef10drop_frontEm(ptr noundef nonnull align 8 dereferenceable(16) %4, i64 noundef %83)
  %85 = getelementptr inbounds nuw { ptr, i64 }, ptr %82, i32 0, i32 0
  %86 = extractvalue { ptr, i64 } %84, 0
  store ptr %86, ptr %85, align 8
  %87 = getelementptr inbounds nuw { ptr, i64 }, ptr %82, i32 0, i32 1
  %88 = extractvalue { ptr, i64 } %84, 1
  store i64 %88, ptr %87, align 8
  %89 = getelementptr inbounds nuw %"struct.llvm::MachO::SimpleSymbol", ptr %0, i32 0, i32 1
  store i8 3, ptr %89, align 8
  %90 = getelementptr inbounds nuw %"struct.llvm::MachO::SimpleSymbol", ptr %0, i32 0, i32 2
  store i8 0, ptr %90, align 1
  br label %95

91:                                               ; preds = %75
  %92 = getelementptr inbounds nuw %"struct.llvm::MachO::SimpleSymbol", ptr %0, i32 0, i32 0
  call void @llvm.memcpy.p0.p0.i64(ptr align 8 %92, ptr align 8 %4, i64 16, i1 false)
  %93 = getelementptr inbounds nuw %"struct.llvm::MachO::SimpleSymbol", ptr %0, i32 0, i32 1
  store i8 0, ptr %93, align 8
  %94 = getelementptr inbounds nuw %"struct.llvm::MachO::SimpleSymbol", ptr %0, i32 0, i32 2
  store i8 0, ptr %94, align 1
  br label %95

95:                                               ; preds = %91, %81, %65, %49, %33, %17
  ret void
}