; Function Attrs: mustprogress nofree nounwind willreturn memory(argmem: readwrite) uwtable
define dso_local void @_ZN4llvm5MachO11parseSymbolENS_9StringRefE(ptr dead_on_unwind noalias nocapture writable writeonly sret(%"struct.llvm::MachO::SimpleSymbol") align 8 %0, ptr %1, i64 %2) local_unnamed_addr #2 {
  %.not.i = icmp ult i64 %2, 17
  br i1 %.not.i, label %8, label %_ZNK4llvm9StringRef11starts_withES0_.exit

_ZNK4llvm9StringRef11starts_withES0_.exit:        ; preds = %3
  %bcmp.i = tail call i32 @bcmp(ptr noundef nonnull dereferenceable(17) %1, ptr noundef nonnull dereferenceable(17) @.str, i64 17)
  %4 = icmp eq i32 %bcmp.i, 0
  br i1 %4, label %5, label %_ZNK4llvm9StringRef11starts_withES0_.exit11

5:                                                ; preds = %_ZNK4llvm9StringRef11starts_withES0_.exit
  %6 = getelementptr inbounds i8, ptr %1, i64 17
  %7 = add i64 %2, -17
  br label %_ZNK4llvm9StringRef11starts_withES0_.exit29.thread

8:                                                ; preds = %3
  %.not.i9 = icmp ult i64 %2, 14
  br i1 %.not.i9, label %23, label %_ZNK4llvm9StringRef11starts_withES0_.exit11

_ZNK4llvm9StringRef11starts_withES0_.exit11:      ; preds = %_ZNK4llvm9StringRef11starts_withES0_.exit, %8
  %bcmp.i10 = tail call i32 @bcmp(ptr noundef nonnull dereferenceable(14) %1, ptr noundef nonnull dereferenceable(14) @.str.2, i64 14)
  %9 = icmp eq i32 %bcmp.i10, 0
  br i1 %9, label %10, label %13

10:                                               ; preds = %_ZNK4llvm9StringRef11starts_withES0_.exit11
  %11 = getelementptr inbounds i8, ptr %1, i64 14
  %12 = add i64 %2, -14
  br label %_ZNK4llvm9StringRef11starts_withES0_.exit29.thread

13:                                               ; preds = %_ZNK4llvm9StringRef11starts_withES0_.exit11
  %.not.i15 = icmp ult i64 %2, 18
  br i1 %.not.i15, label %18, label %_ZNK4llvm9StringRef11starts_withES0_.exit17

_ZNK4llvm9StringRef11starts_withES0_.exit17:      ; preds = %13
  %bcmp.i16 = tail call i32 @bcmp(ptr noundef nonnull dereferenceable(18) %1, ptr noundef nonnull dereferenceable(18) @.str.4, i64 18)
  %14 = icmp eq i32 %bcmp.i16, 0
  br i1 %14, label %15, label %_ZNK4llvm9StringRef11starts_withES0_.exit23

15:                                               ; preds = %_ZNK4llvm9StringRef11starts_withES0_.exit17
  %16 = getelementptr inbounds i8, ptr %1, i64 18
  %17 = add i64 %2, -18
  br label %_ZNK4llvm9StringRef11starts_withES0_.exit29.thread

18:                                               ; preds = %13
  %.not.i21 = icmp ult i64 %2, 15
  br i1 %.not.i21, label %_ZNK4llvm9StringRef11starts_withES0_.exit29, label %_ZNK4llvm9StringRef11starts_withES0_.exit23

_ZNK4llvm9StringRef11starts_withES0_.exit23:      ; preds = %_ZNK4llvm9StringRef11starts_withES0_.exit17, %18
  %bcmp.i22 = tail call i32 @bcmp(ptr noundef nonnull dereferenceable(15) %1, ptr noundef nonnull dereferenceable(15) @.str.6, i64 15)
  %19 = icmp eq i32 %bcmp.i22, 0
  br i1 %19, label %20, label %_ZNK4llvm9StringRef11starts_withES0_.exit29

20:                                               ; preds = %_ZNK4llvm9StringRef11starts_withES0_.exit23
  %21 = getelementptr inbounds i8, ptr %1, i64 15
  %22 = add i64 %2, -15
  br label %_ZNK4llvm9StringRef11starts_withES0_.exit29.thread

23:                                               ; preds = %8
  %.not.i27.not = icmp eq i64 %2, 13
  br i1 %.not.i27.not, label %_ZNK4llvm9StringRef11starts_withES0_.exit29, label %_ZNK4llvm9StringRef11starts_withES0_.exit29.thread

_ZNK4llvm9StringRef11starts_withES0_.exit29:      ; preds = %_ZNK4llvm9StringRef11starts_withES0_.exit23, %18, %23
  %bcmp.i28 = tail call i32 @bcmp(ptr noundef nonnull dereferenceable(13) %1, ptr noundef nonnull dereferenceable(13) @.str.8, i64 13)
  %24 = icmp eq i32 %bcmp.i28, 0
  br i1 %24, label %25, label %_ZNK4llvm9StringRef11starts_withES0_.exit29.thread

25:                                               ; preds = %_ZNK4llvm9StringRef11starts_withES0_.exit29
  %26 = getelementptr inbounds i8, ptr %1, i64 13
  %27 = add i64 %2, -13
  br label %_ZNK4llvm9StringRef11starts_withES0_.exit29.thread

_ZNK4llvm9StringRef11starts_withES0_.exit29.thread: ; preds = %_ZNK4llvm9StringRef11starts_withES0_.exit29, %23, %25, %20, %15, %10, %5
  %.sink66 = phi ptr [ %26, %25 ], [ %21, %20 ], [ %16, %15 ], [ %11, %10 ], [ %6, %5 ], [ %1, %23 ], [ %1, %_ZNK4llvm9StringRef11starts_withES0_.exit29 ]
  %.sink65 = phi i64 [ %27, %25 ], [ %22, %20 ], [ %17, %15 ], [ %12, %10 ], [ %7, %5 ], [ %2, %23 ], [ %2, %_ZNK4llvm9StringRef11starts_withES0_.exit29 ]
  %.sink63 = phi i8 [ 3, %25 ], [ 2, %20 ], [ 1, %15 ], [ 1, %10 ], [ 1, %5 ], [ 0, %23 ], [ 0, %_ZNK4llvm9StringRef11starts_withES0_.exit29 ]
  %.sink = phi i8 [ 0, %25 ], [ 4, %20 ], [ 2, %15 ], [ 1, %10 ], [ 1, %5 ], [ 0, %23 ], [ 0, %_ZNK4llvm9StringRef11starts_withES0_.exit29 ]
  store ptr %.sink66, ptr %0, align 8
  %.sroa.12.0..sroa_idx = getelementptr inbounds i8, ptr %0, i64 8
  store i64 %.sink65, ptr %.sroa.12.0..sroa_idx, align 8
  %28 = getelementptr inbounds nuw i8, ptr %0, i64 16
  store i8 %.sink63, ptr %28, align 8
  %29 = getelementptr inbounds nuw i8, ptr %0, i64 17
  store i8 %.sink, ptr %29, align 1
  ret void
}